; ModuleID = 'hoge2.cpp'
source_filename = "hoge2.cpp"
target datalayout = "e-m:o-i64:64-f80:128-n8:16:32:64-S128"
target triple = "x86_64-apple-macosx10.15.0"

%"class.std::__1::basic_ostream" = type { i32 (...)**, %"class.std::__1::basic_ios.base" }
%"class.std::__1::basic_ios.base" = type <{ %"class.std::__1::ios_base", %"class.std::__1::basic_ostream"*, i32 }>
%"class.std::__1::ios_base" = type { i32 (...)**, i32, i64, i64, i32, i32, i8*, i8*, void (i32, %"class.std::__1::ios_base"*, i32)**, i32*, i64, i64, i64*, i64, i64, i8**, i64, i64 }
%"class.std::__1::locale::id" = type <{ %"struct.std::__1::once_flag", i32, [4 x i8] }>
%"struct.std::__1::once_flag" = type { i64 }
%struct.__va_list_tag = type { i32, i32, i8*, i8* }
%"class.std::__1::basic_ios" = type <{ %"class.std::__1::ios_base", %"class.std::__1::basic_ostream"*, i32, [4 x i8] }>
%"class.std::__1::locale" = type { %"class.std::__1::locale::__imp"* }
%"class.std::__1::locale::__imp" = type opaque
%"class.std::__1::ctype" = type <{ %"class.std::__1::locale::facet", i32*, i8, [7 x i8] }>
%"class.std::__1::locale::facet" = type { %"class.std::__1::__shared_count" }
%"class.std::__1::__shared_count" = type { i32 (...)**, i64 }

@_ZNSt3__14coutE = external global %"class.std::__1::basic_ostream", align 8
@_ZNSt3__15ctypeIcE2idE = external global %"class.std::__1::locale::id", align 8

; Function Attrs: noinline nounwind optnone ssp uwtable
define i32 @_Z4sum1iiz(i32, i32, ...) #0 {
  %3 = alloca i32, align 4
  %4 = alloca i32, align 4
  %5 = alloca i32, align 4
  %6 = alloca i32, align 4
  %7 = alloca i32, align 4
  %8 = alloca [1 x %struct.__va_list_tag], align 16
  store i32 %0, i32* %3, align 4
  store i32 %1, i32* %4, align 4
  store i32 0, i32* %5, align 4
  store i32 0, i32* %6, align 4
  store i32 0, i32* %7, align 4
  %9 = getelementptr inbounds [1 x %struct.__va_list_tag], [1 x %struct.__va_list_tag]* %8, i64 0, i64 0
  %10 = bitcast %struct.__va_list_tag* %9 to i8*
  call void @llvm.va_start(i8* %10)
  store i32 0, i32* %5, align 4
  br label %11

11:                                               ; preds = %37, %2
  %12 = load i32, i32* %5, align 4
  %13 = load i32, i32* %3, align 4
  %14 = icmp slt i32 %12, %13
  br i1 %14, label %15, label %40

15:                                               ; preds = %11
  %16 = getelementptr inbounds [1 x %struct.__va_list_tag], [1 x %struct.__va_list_tag]* %8, i64 0, i64 0
  %17 = getelementptr inbounds %struct.__va_list_tag, %struct.__va_list_tag* %16, i32 0, i32 0
  %18 = load i32, i32* %17, align 16
  %19 = icmp ule i32 %18, 40
  br i1 %19, label %20, label %26

20:                                               ; preds = %15
  %21 = getelementptr inbounds %struct.__va_list_tag, %struct.__va_list_tag* %16, i32 0, i32 3
  %22 = load i8*, i8** %21, align 16
  %23 = getelementptr i8, i8* %22, i32 %18
  %24 = bitcast i8* %23 to i32*
  %25 = add i32 %18, 8
  store i32 %25, i32* %17, align 16
  br label %31

26:                                               ; preds = %15
  %27 = getelementptr inbounds %struct.__va_list_tag, %struct.__va_list_tag* %16, i32 0, i32 2
  %28 = load i8*, i8** %27, align 8
  %29 = bitcast i8* %28 to i32*
  %30 = getelementptr i8, i8* %28, i32 8
  store i8* %30, i8** %27, align 8
  br label %31

31:                                               ; preds = %26, %20
  %32 = phi i32* [ %24, %20 ], [ %29, %26 ]
  %33 = load i32, i32* %32, align 4
  store i32 %33, i32* %6, align 4
  %34 = load i32, i32* %6, align 4
  %35 = load i32, i32* %7, align 4
  %36 = add nsw i32 %35, %34
  store i32 %36, i32* %7, align 4
  br label %37

37:                                               ; preds = %31
  %38 = load i32, i32* %5, align 4
  %39 = add nsw i32 %38, 1
  store i32 %39, i32* %5, align 4
  br label %11

40:                                               ; preds = %11
  %41 = getelementptr inbounds [1 x %struct.__va_list_tag], [1 x %struct.__va_list_tag]* %8, i64 0, i64 0
  %42 = bitcast %struct.__va_list_tag* %41 to i8*
  call void @llvm.va_end(i8* %42)
  %43 = load i32, i32* %7, align 4
  ret i32 %43
}

; Function Attrs: nounwind
declare void @llvm.va_start(i8*) #1

; Function Attrs: nounwind
declare void @llvm.va_end(i8*) #1

; Function Attrs: noinline nounwind optnone ssp uwtable
define i32 @_Z4sum2iz(i32, ...) #0 {
  %2 = alloca i32, align 4
  %3 = alloca i32, align 4
  %4 = alloca i32, align 4
  %5 = alloca i32, align 4
  %6 = alloca [1 x %struct.__va_list_tag], align 16
  store i32 %0, i32* %2, align 4
  store i32 0, i32* %3, align 4
  store i32 0, i32* %4, align 4
  store i32 0, i32* %5, align 4
  %7 = getelementptr inbounds [1 x %struct.__va_list_tag], [1 x %struct.__va_list_tag]* %6, i64 0, i64 0
  %8 = bitcast %struct.__va_list_tag* %7 to i8*
  call void @llvm.va_start(i8* %8)
  store i32 0, i32* %3, align 4
  br label %9

9:                                                ; preds = %35, %1
  %10 = load i32, i32* %3, align 4
  %11 = load i32, i32* %2, align 4
  %12 = icmp slt i32 %10, %11
  br i1 %12, label %13, label %38

13:                                               ; preds = %9
  %14 = getelementptr inbounds [1 x %struct.__va_list_tag], [1 x %struct.__va_list_tag]* %6, i64 0, i64 0
  %15 = getelementptr inbounds %struct.__va_list_tag, %struct.__va_list_tag* %14, i32 0, i32 0
  %16 = load i32, i32* %15, align 16
  %17 = icmp ule i32 %16, 40
  br i1 %17, label %18, label %24

18:                                               ; preds = %13
  %19 = getelementptr inbounds %struct.__va_list_tag, %struct.__va_list_tag* %14, i32 0, i32 3
  %20 = load i8*, i8** %19, align 16
  %21 = getelementptr i8, i8* %20, i32 %16
  %22 = bitcast i8* %21 to i32*
  %23 = add i32 %16, 8
  store i32 %23, i32* %15, align 16
  br label %29

24:                                               ; preds = %13
  %25 = getelementptr inbounds %struct.__va_list_tag, %struct.__va_list_tag* %14, i32 0, i32 2
  %26 = load i8*, i8** %25, align 8
  %27 = bitcast i8* %26 to i32*
  %28 = getelementptr i8, i8* %26, i32 8
  store i8* %28, i8** %25, align 8
  br label %29

29:                                               ; preds = %24, %18
  %30 = phi i32* [ %22, %18 ], [ %27, %24 ]
  %31 = load i32, i32* %30, align 4
  store i32 %31, i32* %4, align 4
  %32 = load i32, i32* %4, align 4
  %33 = load i32, i32* %5, align 4
  %34 = add nsw i32 %33, %32
  store i32 %34, i32* %5, align 4
  br label %35

35:                                               ; preds = %29
  %36 = load i32, i32* %3, align 4
  %37 = add nsw i32 %36, 1
  store i32 %37, i32* %3, align 4
  br label %9

38:                                               ; preds = %9
  %39 = getelementptr inbounds [1 x %struct.__va_list_tag], [1 x %struct.__va_list_tag]* %6, i64 0, i64 0
  %40 = bitcast %struct.__va_list_tag* %39 to i8*
  call void @llvm.va_end(i8* %40)
  %41 = load i32, i32* %5, align 4
  ret i32 %41
}

; Function Attrs: noinline norecurse optnone ssp uwtable
define i32 @main() #2 {
  %1 = alloca i32, align 4
  store i32 0, i32* %1, align 4
  %2 = call i32 (i32, i32, ...) @_Z4sum1iiz(i32 2, i32 2, i32 1, i32 13)
  %3 = call dereferenceable(160) %"class.std::__1::basic_ostream"* @_ZNSt3__113basic_ostreamIcNS_11char_traitsIcEEElsEi(%"class.std::__1::basic_ostream"* @_ZNSt3__14coutE, i32 %2)
  %4 = call dereferenceable(160) %"class.std::__1::basic_ostream"* @_ZNSt3__113basic_ostreamIcNS_11char_traitsIcEEElsEPFRS3_S4_E(%"class.std::__1::basic_ostream"* %3, %"class.std::__1::basic_ostream"* (%"class.std::__1::basic_ostream"*)* @_ZNSt3__1L4endlIcNS_11char_traitsIcEEEERNS_13basic_ostreamIT_T0_EES7_)
  %5 = call i32 (i32, ...) @_Z4sum2iz(i32 3, i32 2, i32 1, i32 13)
  %6 = call dereferenceable(160) %"class.std::__1::basic_ostream"* @_ZNSt3__113basic_ostreamIcNS_11char_traitsIcEEElsEi(%"class.std::__1::basic_ostream"* @_ZNSt3__14coutE, i32 %5)
  %7 = call dereferenceable(160) %"class.std::__1::basic_ostream"* @_ZNSt3__113basic_ostreamIcNS_11char_traitsIcEEElsEPFRS3_S4_E(%"class.std::__1::basic_ostream"* %6, %"class.std::__1::basic_ostream"* (%"class.std::__1::basic_ostream"*)* @_ZNSt3__1L4endlIcNS_11char_traitsIcEEEERNS_13basic_ostreamIT_T0_EES7_)
  ret i32 0
}

declare dereferenceable(160) %"class.std::__1::basic_ostream"* @_ZNSt3__113basic_ostreamIcNS_11char_traitsIcEEElsEi(%"class.std::__1::basic_ostream"*, i32) #3

; Function Attrs: noinline optnone ssp uwtable
define internal dereferenceable(160) %"class.std::__1::basic_ostream"* @_ZNSt3__113basic_ostreamIcNS_11char_traitsIcEEElsEPFRS3_S4_E(%"class.std::__1::basic_ostream"*, %"class.std::__1::basic_ostream"* (%"class.std::__1::basic_ostream"*)*) #4 align 2 {
  %3 = alloca %"class.std::__1::basic_ostream"*, align 8
  %4 = alloca %"class.std::__1::basic_ostream"* (%"class.std::__1::basic_ostream"*)*, align 8
  store %"class.std::__1::basic_ostream"* %0, %"class.std::__1::basic_ostream"** %3, align 8
  store %"class.std::__1::basic_ostream"* (%"class.std::__1::basic_ostream"*)* %1, %"class.std::__1::basic_ostream"* (%"class.std::__1::basic_ostream"*)** %4, align 8
  %5 = load %"class.std::__1::basic_ostream"*, %"class.std::__1::basic_ostream"** %3, align 8
  %6 = load %"class.std::__1::basic_ostream"* (%"class.std::__1::basic_ostream"*)*, %"class.std::__1::basic_ostream"* (%"class.std::__1::basic_ostream"*)** %4, align 8
  %7 = call dereferenceable(160) %"class.std::__1::basic_ostream"* %6(%"class.std::__1::basic_ostream"* dereferenceable(160) %5)
  ret %"class.std::__1::basic_ostream"* %7
}

; Function Attrs: noinline optnone ssp uwtable
define internal dereferenceable(160) %"class.std::__1::basic_ostream"* @_ZNSt3__1L4endlIcNS_11char_traitsIcEEEERNS_13basic_ostreamIT_T0_EES7_(%"class.std::__1::basic_ostream"* dereferenceable(160)) #4 {
  %2 = alloca %"class.std::__1::basic_ostream"*, align 8
  store %"class.std::__1::basic_ostream"* %0, %"class.std::__1::basic_ostream"** %2, align 8
  %3 = load %"class.std::__1::basic_ostream"*, %"class.std::__1::basic_ostream"** %2, align 8
  %4 = load %"class.std::__1::basic_ostream"*, %"class.std::__1::basic_ostream"** %2, align 8
  %5 = bitcast %"class.std::__1::basic_ostream"* %4 to i8**
  %6 = load i8*, i8** %5, align 8
  %7 = getelementptr i8, i8* %6, i64 -24
  %8 = bitcast i8* %7 to i64*
  %9 = load i64, i64* %8, align 8
  %10 = bitcast %"class.std::__1::basic_ostream"* %4 to i8*
  %11 = getelementptr inbounds i8, i8* %10, i64 %9
  %12 = bitcast i8* %11 to %"class.std::__1::basic_ios"*
  %13 = call signext i8 @_ZNKSt3__19basic_iosIcNS_11char_traitsIcEEE5widenEc(%"class.std::__1::basic_ios"* %12, i8 signext 10)
  %14 = call dereferenceable(160) %"class.std::__1::basic_ostream"* @_ZNSt3__113basic_ostreamIcNS_11char_traitsIcEEE3putEc(%"class.std::__1::basic_ostream"* %3, i8 signext %13)
  %15 = load %"class.std::__1::basic_ostream"*, %"class.std::__1::basic_ostream"** %2, align 8
  %16 = call dereferenceable(160) %"class.std::__1::basic_ostream"* @_ZNSt3__113basic_ostreamIcNS_11char_traitsIcEEE5flushEv(%"class.std::__1::basic_ostream"* %15)
  %17 = load %"class.std::__1::basic_ostream"*, %"class.std::__1::basic_ostream"** %2, align 8
  ret %"class.std::__1::basic_ostream"* %17
}

declare dereferenceable(160) %"class.std::__1::basic_ostream"* @_ZNSt3__113basic_ostreamIcNS_11char_traitsIcEEE3putEc(%"class.std::__1::basic_ostream"*, i8 signext) #3

; Function Attrs: noinline optnone ssp uwtable
define internal signext i8 @_ZNKSt3__19basic_iosIcNS_11char_traitsIcEEE5widenEc(%"class.std::__1::basic_ios"*, i8 signext) #4 align 2 personality i8* bitcast (i32 (...)* @__gxx_personality_v0 to i8*) {
  %3 = alloca %"class.std::__1::basic_ios"*, align 8
  %4 = alloca i8, align 1
  %5 = alloca %"class.std::__1::locale", align 8
  %6 = alloca i8*
  %7 = alloca i32
  store %"class.std::__1::basic_ios"* %0, %"class.std::__1::basic_ios"** %3, align 8
  store i8 %1, i8* %4, align 1
  %8 = load %"class.std::__1::basic_ios"*, %"class.std::__1::basic_ios"** %3, align 8
  %9 = bitcast %"class.std::__1::basic_ios"* %8 to %"class.std::__1::ios_base"*
  call void @_ZNKSt3__18ios_base6getlocEv(%"class.std::__1::locale"* sret %5, %"class.std::__1::ios_base"* %9)
  %10 = invoke dereferenceable(32) %"class.std::__1::ctype"* @_ZNSt3__1L9use_facetINS_5ctypeIcEEEERKT_RKNS_6localeE(%"class.std::__1::locale"* dereferenceable(8) %5)
          to label %11 unwind label %15

11:                                               ; preds = %2
  %12 = load i8, i8* %4, align 1
  %13 = invoke signext i8 @_ZNKSt3__15ctypeIcE5widenEc(%"class.std::__1::ctype"* %10, i8 signext %12)
          to label %14 unwind label %15

14:                                               ; preds = %11
  call void @_ZNSt3__16localeD1Ev(%"class.std::__1::locale"* %5)
  ret i8 %13

15:                                               ; preds = %11, %2
  %16 = landingpad { i8*, i32 }
          cleanup
  %17 = extractvalue { i8*, i32 } %16, 0
  store i8* %17, i8** %6, align 8
  %18 = extractvalue { i8*, i32 } %16, 1
  store i32 %18, i32* %7, align 4
  invoke void @_ZNSt3__16localeD1Ev(%"class.std::__1::locale"* %5)
          to label %19 unwind label %25

19:                                               ; preds = %15
  br label %20

20:                                               ; preds = %19
  %21 = load i8*, i8** %6, align 8
  %22 = load i32, i32* %7, align 4
  %23 = insertvalue { i8*, i32 } undef, i8* %21, 0
  %24 = insertvalue { i8*, i32 } %23, i32 %22, 1
  resume { i8*, i32 } %24

25:                                               ; preds = %15
  %26 = landingpad { i8*, i32 }
          catch i8* null
  %27 = extractvalue { i8*, i32 } %26, 0
  call void @__clang_call_terminate(i8* %27) #6
  unreachable
}

declare dereferenceable(160) %"class.std::__1::basic_ostream"* @_ZNSt3__113basic_ostreamIcNS_11char_traitsIcEEE5flushEv(%"class.std::__1::basic_ostream"*) #3

; Function Attrs: noinline optnone ssp uwtable
define internal dereferenceable(32) %"class.std::__1::ctype"* @_ZNSt3__1L9use_facetINS_5ctypeIcEEEERKT_RKNS_6localeE(%"class.std::__1::locale"* dereferenceable(8)) #4 {
  %2 = alloca %"class.std::__1::locale"*, align 8
  store %"class.std::__1::locale"* %0, %"class.std::__1::locale"** %2, align 8
  %3 = load %"class.std::__1::locale"*, %"class.std::__1::locale"** %2, align 8
  %4 = call %"class.std::__1::locale::facet"* @_ZNKSt3__16locale9use_facetERNS0_2idE(%"class.std::__1::locale"* %3, %"class.std::__1::locale::id"* dereferenceable(16) @_ZNSt3__15ctypeIcE2idE)
  %5 = bitcast %"class.std::__1::locale::facet"* %4 to %"class.std::__1::ctype"*
  ret %"class.std::__1::ctype"* %5
}

declare void @_ZNKSt3__18ios_base6getlocEv(%"class.std::__1::locale"* sret, %"class.std::__1::ios_base"*) #3

declare i32 @__gxx_personality_v0(...)

; Function Attrs: noinline optnone ssp uwtable
define internal signext i8 @_ZNKSt3__15ctypeIcE5widenEc(%"class.std::__1::ctype"*, i8 signext) #4 align 2 {
  %3 = alloca %"class.std::__1::ctype"*, align 8
  %4 = alloca i8, align 1
  store %"class.std::__1::ctype"* %0, %"class.std::__1::ctype"** %3, align 8
  store i8 %1, i8* %4, align 1
  %5 = load %"class.std::__1::ctype"*, %"class.std::__1::ctype"** %3, align 8
  %6 = load i8, i8* %4, align 1
  %7 = bitcast %"class.std::__1::ctype"* %5 to i8 (%"class.std::__1::ctype"*, i8)***
  %8 = load i8 (%"class.std::__1::ctype"*, i8)**, i8 (%"class.std::__1::ctype"*, i8)*** %7, align 8
  %9 = getelementptr inbounds i8 (%"class.std::__1::ctype"*, i8)*, i8 (%"class.std::__1::ctype"*, i8)** %8, i64 7
  %10 = load i8 (%"class.std::__1::ctype"*, i8)*, i8 (%"class.std::__1::ctype"*, i8)** %9, align 8
  %11 = call signext i8 %10(%"class.std::__1::ctype"* %5, i8 signext %6)
  ret i8 %11
}

declare void @_ZNSt3__16localeD1Ev(%"class.std::__1::locale"*) unnamed_addr #3

; Function Attrs: noinline noreturn nounwind
define linkonce_odr hidden void @__clang_call_terminate(i8*) #5 {
  %2 = call i8* @__cxa_begin_catch(i8* %0) #1
  call void @_ZSt9terminatev() #6
  unreachable
}

declare i8* @__cxa_begin_catch(i8*)

declare void @_ZSt9terminatev()

declare %"class.std::__1::locale::facet"* @_ZNKSt3__16locale9use_facetERNS0_2idE(%"class.std::__1::locale"*, %"class.std::__1::locale::id"* dereferenceable(16)) #3

attributes #0 = { noinline nounwind optnone ssp uwtable "correctly-rounded-divide-sqrt-fp-math"="false" "darwin-stkchk-strong-link" "disable-tail-calls"="false" "frame-pointer"="all" "less-precise-fpmad"="false" "min-legal-vector-width"="0" "no-infs-fp-math"="false" "no-jump-tables"="false" "no-nans-fp-math"="false" "no-signed-zeros-fp-math"="false" "no-trapping-math"="false" "probe-stack"="___chkstk_darwin" "stack-protector-buffer-size"="8" "target-cpu"="penryn" "target-features"="+cx16,+cx8,+fxsr,+mmx,+sahf,+sse,+sse2,+sse3,+sse4.1,+ssse3,+x87" "unsafe-fp-math"="false" "use-soft-float"="false" }
attributes #1 = { nounwind }
attributes #2 = { noinline norecurse optnone ssp uwtable "correctly-rounded-divide-sqrt-fp-math"="false" "darwin-stkchk-strong-link" "disable-tail-calls"="false" "frame-pointer"="all" "less-precise-fpmad"="false" "min-legal-vector-width"="0" "no-infs-fp-math"="false" "no-jump-tables"="false" "no-nans-fp-math"="false" "no-signed-zeros-fp-math"="false" "no-trapping-math"="false" "probe-stack"="___chkstk_darwin" "stack-protector-buffer-size"="8" "target-cpu"="penryn" "target-features"="+cx16,+cx8,+fxsr,+mmx,+sahf,+sse,+sse2,+sse3,+sse4.1,+ssse3,+x87" "unsafe-fp-math"="false" "use-soft-float"="false" }
attributes #3 = { "correctly-rounded-divide-sqrt-fp-math"="false" "darwin-stkchk-strong-link" "disable-tail-calls"="false" "frame-pointer"="all" "less-precise-fpmad"="false" "no-infs-fp-math"="false" "no-nans-fp-math"="false" "no-signed-zeros-fp-math"="false" "no-trapping-math"="false" "probe-stack"="___chkstk_darwin" "stack-protector-buffer-size"="8" "target-cpu"="penryn" "target-features"="+cx16,+cx8,+fxsr,+mmx,+sahf,+sse,+sse2,+sse3,+sse4.1,+ssse3,+x87" "unsafe-fp-math"="false" "use-soft-float"="false" }
attributes #4 = { noinline optnone ssp uwtable "correctly-rounded-divide-sqrt-fp-math"="false" "darwin-stkchk-strong-link" "disable-tail-calls"="false" "frame-pointer"="all" "less-precise-fpmad"="false" "min-legal-vector-width"="0" "no-infs-fp-math"="false" "no-jump-tables"="false" "no-nans-fp-math"="false" "no-signed-zeros-fp-math"="false" "no-trapping-math"="false" "probe-stack"="___chkstk_darwin" "stack-protector-buffer-size"="8" "target-cpu"="penryn" "target-features"="+cx16,+cx8,+fxsr,+mmx,+sahf,+sse,+sse2,+sse3,+sse4.1,+ssse3,+x87" "unsafe-fp-math"="false" "use-soft-float"="false" }
attributes #5 = { noinline noreturn nounwind }
attributes #6 = { noreturn nounwind }

!llvm.module.flags = !{!0, !1, !2}
!llvm.ident = !{!3}

!0 = !{i32 2, !"SDK Version", [3 x i32] [i32 10, i32 15, i32 4]}
!1 = !{i32 1, !"wchar_size", i32 4}
!2 = !{i32 7, !"PIC Level", i32 2}
!3 = !{!"Apple clang version 11.0.3 (clang-1103.0.32.62)"}
